; Function Attrs: mustprogress nofree norecurse nosync nounwind sspstrong willreturn memory(argmem: write) uwtable
define internal i32 @code_to_mbc(i32 noundef %0, ptr noundef %1, ptr readnone captures(none) %2) #5 {
  %4 = and i32 %0, 65280
  %.not = icmp eq i32 %4, 0
  br i1 %.not, label %9, label %5

5:                                                ; preds = %3
  %6 = lshr i32 %0, 8
  %7 = trunc i32 %6 to i8
  %8 = getelementptr inbounds nuw i8, ptr %1, i64 1
  store i8 %7, ptr %1, align 1, !tbaa !6
  br label %9

9:                                                ; preds = %5, %3
  %.0 = phi ptr [ %8, %5 ], [ %1, %3 ]
  %10 = trunc i32 %0 to i8
  %11 = getelementptr inbounds nuw i8, ptr %.0, i64 1
  store i8 %10, ptr %.0, align 1, !tbaa !6
  %12 = ptrtoint ptr %11 to i64
  %13 = ptrtoint ptr %1 to i64
  %14 = sub i64 %12, %13
  %15 = trunc i64 %14 to i32
  ret i32 %15
}